target datalayout = "e-m:e-p270:32:32-p271:32:32-p272:64:64-i64:64-i128:128-f80:128-n8:16:32:64-S128"
target triple = "x86_64-unknown-linux-gnu"

%struct.asn1_string_st = type { i32, i32, ptr, i64 }

; Function Attrs: nounwind uwtable
define hidden i32 @ASN1_STRING_cmp(ptr noundef %a, ptr noundef %b) #0 {
entry:
  %retval = alloca i32, align 4
  %a.addr = alloca ptr, align 8
  %b.addr = alloca ptr, align 8
  %i = alloca i32, align 4
  store ptr %a, ptr %a.addr, align 8
  store ptr %b, ptr %b.addr, align 8
  %0 = load ptr, ptr %a.addr, align 8
  %length = getelementptr inbounds %struct.asn1_string_st, ptr %0, i32 0, i32 0
  %1 = load i32, ptr %length, align 8
  %2 = load ptr, ptr %b.addr, align 8
  %length1 = getelementptr inbounds %struct.asn1_string_st, ptr %2, i32 0, i32 0
  %3 = load i32, ptr %length1, align 8
  %sub = sub nsw i32 %1, %3
  store i32 %sub, ptr %i, align 4
  %4 = load i32, ptr %i, align 4
  %cmp = icmp eq i32 %4, 0
  br i1 %cmp, label %if.then, label %if.else9

if.then:                                          ; preds = %entry
  %5 = load ptr, ptr %a.addr, align 8
  %data = getelementptr inbounds %struct.asn1_string_st, ptr %5, i32 0, i32 2
  %6 = load ptr, ptr %data, align 8
  %7 = load ptr, ptr %b.addr, align 8
  %data2 = getelementptr inbounds %struct.asn1_string_st, ptr %7, i32 0, i32 2
  %8 = load ptr, ptr %data2, align 8
  %9 = load ptr, ptr %a.addr, align 8
  %length3 = getelementptr inbounds %struct.asn1_string_st, ptr %9, i32 0, i32 0
  %10 = load i32, ptr %length3, align 8
  %conv = sext i32 %10 to i64
  %call = call i32 @memcmp(ptr noundef %6, ptr noundef %8, i64 noundef %conv) #7
  store i32 %call, ptr %i, align 4
  %11 = load i32, ptr %i, align 4
  %cmp4 = icmp eq i32 %11, 0
  br i1 %cmp4, label %if.then6, label %if.else

if.then6:                                         ; preds = %if.then
  %12 = load ptr, ptr %a.addr, align 8
  %type = getelementptr inbounds %struct.asn1_string_st, ptr %12, i32 0, i32 1
  %13 = load i32, ptr %type, align 4
  %14 = load ptr, ptr %b.addr, align 8
  %type7 = getelementptr inbounds %struct.asn1_string_st, ptr %14, i32 0, i32 1
  %15 = load i32, ptr %type7, align 4
  %sub8 = sub nsw i32 %13, %15
  store i32 %sub8, ptr %retval, align 4
  br label %return

if.else:                                          ; preds = %if.then
  %16 = load i32, ptr %i, align 4
  store i32 %16, ptr %retval, align 4
  br label %return

if.else9:                                         ; preds = %entry
  %17 = load i32, ptr %i, align 4
  store i32 %17, ptr %retval, align 4
  br label %return

return:                                           ; preds = %if.else9, %if.else, %if.then6
  %18 = load i32, ptr %retval, align 4
  ret i32 %18
}