; Function Attrs: mustprogress nofree nounwind willreturn memory(read, inaccessiblemem: none) uwtable
define hidden i32 @ASN1_STRING_cmp(ptr noundef readonly captures(none) %a, ptr noundef readonly captures(none) %b) local_unnamed_addr #12 {
entry:
  %0 = load i32, ptr %a, align 8
  %1 = load i32, ptr %b, align 8
  %sub = sub nsw i32 %0, %1
  %cmp = icmp eq i32 %sub, 0
  br i1 %cmp, label %if.then, label %return

if.then:                                          ; preds = %entry
  %data = getelementptr inbounds nuw i8, ptr %a, i64 8
  %2 = load ptr, ptr %data, align 8
  %data2 = getelementptr inbounds nuw i8, ptr %b, i64 8
  %3 = load ptr, ptr %data2, align 8
  %conv = sext i32 %0 to i64
  %call = tail call i32 @memcmp(ptr noundef %2, ptr noundef %3, i64 noundef %conv) #17
  %cmp4 = icmp eq i32 %call, 0
  br i1 %cmp4, label %if.then6, label %return

if.then6:                                         ; preds = %if.then
  %type = getelementptr inbounds nuw i8, ptr %a, i64 4
  %4 = load i32, ptr %type, align 4
  %type7 = getelementptr inbounds nuw i8, ptr %b, i64 4
  %5 = load i32, ptr %type7, align 4
  %sub8 = sub nsw i32 %4, %5
  br label %return

return:                                           ; preds = %entry, %if.then, %if.then6
  %retval.0 = phi i32 [ %sub8, %if.then6 ], [ %call, %if.then ], [ %sub, %entry ]
  ret i32 %retval.0
}